target datalayout = "e-m:e-p270:32:32-p271:32:32-p272:64:64-i64:64-i128:128-f80:128-n8:16:32:64-S128"
target triple = "x86_64-pc-linux-gnu"

%struct.Abc_Ntk_t_ = type { i32, i32, ptr, ptr, ptr, ptr, ptr, ptr, ptr, ptr, ptr, ptr, ptr, [11 x i32], i32, i32, i32, i32, ptr, i32, ptr, ptr, i32, i32, i32, double, i32, %struct.Vec_Int_t_, ptr, ptr, ptr, ptr, ptr, float, i32, ptr, ptr, ptr, ptr, ptr, ptr, ptr, ptr, ptr, ptr, ptr, ptr, ptr, ptr, ptr, ptr, ptr, ptr, ptr, ptr, ptr }
%struct.Vec_Int_t_ = type { i32, i32, ptr }
%struct.Abc_Obj_t_ = type { ptr, ptr, i32, i32, %struct.Vec_Int_t_, %struct.Vec_Int_t_, %union.anon, %union.anon.0 }
%union.anon = type { ptr }
%union.anon.0 = type { ptr }
%struct.Vec_Ptr_t_ = type { i32, i32, ptr }

@.str.9 = private unnamed_addr constant [47 x i8] c"Abc_NtkTopmost: The network check has failed.\0A\00", align 1

; Function Attrs: nounwind uwtable
define internal ptr @Vec_PtrEntry(ptr noundef %0, i32 noundef %1) #0 {
  %3 = alloca ptr, align 8
  %4 = alloca i32, align 4
  store ptr %0, ptr %3, align 8
  store i32 %1, ptr %4, align 4
  %5 = load ptr, ptr %3, align 8
  %6 = getelementptr inbounds %struct.Vec_Ptr_t_, ptr %5, i32 0, i32 2
  %7 = load ptr, ptr %6, align 8
  %8 = load i32, ptr %4, align 4
  %9 = sext i32 %8 to i64
  %10 = getelementptr inbounds ptr, ptr %7, i64 %9
  %11 = load ptr, ptr %10, align 8
  ret ptr %11
}

; Function Attrs: nounwind uwtable
define internal i32 @Vec_PtrSize(ptr noundef %0) #0 {
  %2 = alloca ptr, align 8
  store ptr %0, ptr %2, align 8
  %3 = load ptr, ptr %2, align 8
  %4 = getelementptr inbounds %struct.Vec_Ptr_t_, ptr %3, i32 0, i32 1
  %5 = load i32, ptr %4, align 4
  ret i32 %5
}

; Function Attrs: nounwind uwtable
define internal ptr @Abc_NtkCreatePo(ptr noundef %0) #0 {
  %2 = alloca ptr, align 8
  store ptr %0, ptr %2, align 8
  %3 = load ptr, ptr %2, align 8
  %4 = call ptr @Abc_NtkCreateObj(ptr noundef %3, i32 noundef 3)
  ret ptr %4
}

; Function Attrs: nounwind uwtable
define internal ptr @Abc_ObjNotCond(ptr noundef %0, i32 noundef %1) #0 {
  %3 = alloca ptr, align 8
  %4 = alloca i32, align 4
  store ptr %0, ptr %3, align 8
  store i32 %1, ptr %4, align 4
  %5 = load ptr, ptr %3, align 8
  %6 = ptrtoint ptr %5 to i64
  %7 = load i32, ptr %4, align 4
  %8 = icmp ne i32 %7, 0
  %9 = zext i1 %8 to i32
  %10 = sext i32 %9 to i64
  %11 = xor i64 %6, %10
  %12 = inttoptr i64 %11 to ptr
  ret ptr %12
}

; Function Attrs: nounwind uwtable
define internal i32 @Abc_ObjFaninC0(ptr noundef %0) #0 {
  %2 = alloca ptr, align 8
  store ptr %0, ptr %2, align 8
  %3 = load ptr, ptr %2, align 8
  %4 = getelementptr inbounds %struct.Abc_Obj_t_, ptr %3, i32 0, i32 3
  %5 = load i32, ptr %4, align 4
  %6 = lshr i32 %5, 10
  %7 = and i32 %6, 1
  ret i32 %7
}

; Function Attrs: nounwind uwtable
define internal ptr @Abc_ObjFanin0(ptr noundef %0) #0 {
  %2 = alloca ptr, align 8
  store ptr %0, ptr %2, align 8
  %3 = load ptr, ptr %2, align 8
  %4 = getelementptr inbounds %struct.Abc_Obj_t_, ptr %3, i32 0, i32 0
  %5 = load ptr, ptr %4, align 8
  %6 = getelementptr inbounds %struct.Abc_Ntk_t_, ptr %5, i32 0, i32 5
  %7 = load ptr, ptr %6, align 8
  %8 = getelementptr inbounds %struct.Vec_Ptr_t_, ptr %7, i32 0, i32 2
  %9 = load ptr, ptr %8, align 8
  %10 = load ptr, ptr %2, align 8
  %11 = getelementptr inbounds %struct.Abc_Obj_t_, ptr %10, i32 0, i32 4
  %12 = getelementptr inbounds %struct.Vec_Int_t_, ptr %11, i32 0, i32 2
  %13 = load ptr, ptr %12, align 8
  %14 = getelementptr inbounds i32, ptr %13, i64 0
  %15 = load i32, ptr %14, align 4
  %16 = sext i32 %15 to i64
  %17 = getelementptr inbounds ptr, ptr %9, i64 %16
  %18 = load ptr, ptr %17, align 8
  ret ptr %18
}

; Function Attrs: nounwind uwtable
define internal ptr @Abc_NtkCo(ptr noundef %0, i32 noundef %1) #0 {
  %3 = alloca ptr, align 8
  %4 = alloca i32, align 4
  store ptr %0, ptr %3, align 8
  store i32 %1, ptr %4, align 4
  %5 = load ptr, ptr %3, align 8
  %6 = getelementptr inbounds %struct.Abc_Ntk_t_, ptr %5, i32 0, i32 9
  %7 = load ptr, ptr %6, align 8
  %8 = load i32, ptr %4, align 4
  %9 = call ptr @Vec_PtrEntry(ptr noundef %7, i32 noundef %8)
  ret ptr %9
}

; Function Attrs: nounwind uwtable
define internal i32 @Abc_NtkCoNum(ptr noundef %0) #0 {
  %2 = alloca ptr, align 8
  store ptr %0, ptr %2, align 8
  %3 = load ptr, ptr %2, align 8
  %4 = getelementptr inbounds %struct.Abc_Ntk_t_, ptr %3, i32 0, i32 9
  %5 = load ptr, ptr %4, align 8
  %6 = call i32 @Vec_PtrSize(ptr noundef %5)
  ret i32 %6
}

; Function Attrs: nounwind uwtable
define internal i32 @Abc_MaxInt(i32 noundef %0, i32 noundef %1) #0 {
  %3 = alloca i32, align 4
  %4 = alloca i32, align 4
  store i32 %0, ptr %3, align 4
  store i32 %1, ptr %4, align 4
  %5 = load i32, ptr %3, align 4
  %6 = load i32, ptr %4, align 4
  %7 = icmp sgt i32 %5, %6
  br i1 %7, label %8, label %10

8:                                                ; preds = %2
  %9 = load i32, ptr %3, align 4
  br label %12

10:                                               ; preds = %2
  %11 = load i32, ptr %4, align 4
  br label %12

12:                                               ; preds = %10, %8
  %13 = phi i32 [ %9, %8 ], [ %11, %10 ]
  ret i32 %13
}

; Function Attrs: nounwind uwtable
define ptr @Abc_NtkTopmost(ptr noundef %0, i32 noundef %1) #0 {
  %3 = alloca ptr, align 8
  %4 = alloca ptr, align 8
  %5 = alloca i32, align 4
  %6 = alloca ptr, align 8
  %7 = alloca ptr, align 8
  %8 = alloca ptr, align 8
  %9 = alloca i32, align 4
  %10 = alloca i32, align 4
  store ptr %0, ptr %4, align 8
  store i32 %1, ptr %5, align 4
  %11 = load ptr, ptr %4, align 8
  %12 = call i32 @Abc_AigLevel(ptr noundef %11)
  %13 = load i32, ptr %5, align 4
  %14 = sub nsw i32 %12, %13
  %15 = call i32 @Abc_MaxInt(i32 noundef 0, i32 noundef %14)
  store i32 %15, ptr %9, align 4
  %16 = call ptr @Abc_NtkAlloc(i32 noundef 3, i32 noundef 3, i32 noundef 1)
  store ptr %16, ptr %6, align 8
  %17 = load ptr, ptr %4, align 8
  %18 = getelementptr inbounds %struct.Abc_Ntk_t_, ptr %17, i32 0, i32 2
  %19 = load ptr, ptr %18, align 8
  %20 = call ptr @Extra_UtilStrsav(ptr noundef %19)
  %21 = load ptr, ptr %6, align 8
  %22 = getelementptr inbounds %struct.Abc_Ntk_t_, ptr %21, i32 0, i32 2
  store ptr %20, ptr %22, align 8
  %23 = load ptr, ptr %4, align 8
  call void @Abc_NtkCleanCopy(ptr noundef %23)
  %24 = load ptr, ptr %6, align 8
  %25 = call ptr @Abc_AigConst1(ptr noundef %24)
  %26 = load ptr, ptr %4, align 8
  %27 = call ptr @Abc_AigConst1(ptr noundef %26)
  %28 = getelementptr inbounds %struct.Abc_Obj_t_, ptr %27, i32 0, i32 7
  store ptr %25, ptr %28, align 8
  store i32 0, ptr %10, align 4
  br label %29

29:                                               ; preds = %55, %2
  %30 = load i32, ptr %10, align 4
  %31 = load ptr, ptr %4, align 8
  %32 = call i32 @Abc_NtkCoNum(ptr noundef %31)
  %33 = icmp slt i32 %30, %32
  br i1 %33, label %34, label %38

34:                                               ; preds = %29
  %35 = load ptr, ptr %4, align 8
  %36 = load i32, ptr %10, align 4
  %37 = call ptr @Abc_NtkCo(ptr noundef %35, i32 noundef %36)
  store ptr %37, ptr %8, align 8
  br label %38

38:                                               ; preds = %34, %29
  %39 = phi i1 [ false, %29 ], [ true, %34 ]
  br i1 %39, label %40, label %58

40:                                               ; preds = %38
  %41 = load ptr, ptr %6, align 8
  %42 = load ptr, ptr %8, align 8
  %43 = call ptr @Abc_ObjFanin0(ptr noundef %42)
  %44 = load i32, ptr %9, align 4
  %45 = call ptr @Abc_NtkTopmost_rec(ptr noundef %41, ptr noundef %43, i32 noundef %44)
  store ptr %45, ptr %7, align 8
  %46 = load ptr, ptr %7, align 8
  %47 = load ptr, ptr %8, align 8
  %48 = call i32 @Abc_ObjFaninC0(ptr noundef %47)
  %49 = call ptr @Abc_ObjNotCond(ptr noundef %46, i32 noundef %48)
  store ptr %49, ptr %7, align 8
  %50 = load ptr, ptr %6, align 8
  %51 = call ptr @Abc_NtkCreatePo(ptr noundef %50)
  %52 = load ptr, ptr %8, align 8
  %53 = getelementptr inbounds %struct.Abc_Obj_t_, ptr %52, i32 0, i32 7
  store ptr %51, ptr %53, align 8
  %54 = load ptr, ptr %7, align 8
  call void @Abc_ObjAddFanin(ptr noundef %51, ptr noundef %54)
  br label %55

55:                                               ; preds = %40
  %56 = load i32, ptr %10, align 4
  %57 = add nsw i32 %56, 1
  store i32 %57, ptr %10, align 4
  br label %29, !llvm.loop !17

58:                                               ; preds = %38
  %59 = load ptr, ptr %6, align 8
  call void @Abc_NtkAddDummyPiNames(ptr noundef %59)
  store i32 0, ptr %10, align 4
  br label %60

60:                                               ; preds = %78, %58
  %61 = load i32, ptr %10, align 4
  %62 = load ptr, ptr %4, align 8
  %63 = call i32 @Abc_NtkCoNum(ptr noundef %62)
  %64 = icmp slt i32 %61, %63
  br i1 %64, label %65, label %69

65:                                               ; preds = %60
  %66 = load ptr, ptr %4, align 8
  %67 = load i32, ptr %10, align 4
  %68 = call ptr @Abc_NtkCo(ptr noundef %66, i32 noundef %67)
  store ptr %68, ptr %8, align 8
  br label %69

69:                                               ; preds = %65, %60
  %70 = phi i1 [ false, %60 ], [ true, %65 ]
  br i1 %70, label %71, label %81

71:                                               ; preds = %69
  %72 = load ptr, ptr %8, align 8
  %73 = getelementptr inbounds %struct.Abc_Obj_t_, ptr %72, i32 0, i32 7
  %74 = load ptr, ptr %73, align 8
  %75 = load ptr, ptr %8, align 8
  %76 = call ptr @Abc_ObjName(ptr noundef %75)
  %77 = call ptr @Abc_ObjAssignName(ptr noundef %74, ptr noundef %76, ptr noundef null)
  br label %78

78:                                               ; preds = %71
  %79 = load i32, ptr %10, align 4
  %80 = add nsw i32 %79, 1
  store i32 %80, ptr %10, align 4
  br label %60, !llvm.loop !18

81:                                               ; preds = %69
  %82 = load ptr, ptr %6, align 8
  %83 = call i32 @Abc_NtkCheck(ptr noundef %82)
  %84 = icmp ne i32 %83, 0
  br i1 %84, label %88, label %85

85:                                               ; preds = %81
  %86 = call i32 (ptr, ...) @printf(ptr noundef @.str.9)
  %87 = load ptr, ptr %6, align 8
  call void @Abc_NtkDelete(ptr noundef %87)
  store ptr null, ptr %3, align 8
  br label %90

88:                                               ; preds = %81
  %89 = load ptr, ptr %6, align 8
  store ptr %89, ptr %3, align 8
  br label %90

90:                                               ; preds = %88, %85
  %91 = load ptr, ptr %3, align 8
  ret ptr %91
}