; Function Attrs: nounwind uwtable
define ptr @Abc_NtkTopmost(ptr noundef %0, i32 noundef %1) local_unnamed_addr #0 {
  %3 = tail call i32 @Abc_AigLevel(ptr noundef %0) #11
  %4 = sub nsw i32 %3, %1
  %5 = tail call noundef range(i32 0, -2147483648) i32 @llvm.smax.i32(i32 %4, i32 0)
  %6 = tail call ptr @Abc_NtkAlloc(i32 noundef 3, i32 noundef 3, i32 noundef 1) #11
  %7 = getelementptr inbounds nuw i8, ptr %0, i64 8
  %8 = load ptr, ptr %7, align 8
  %9 = tail call ptr @Extra_UtilStrsav(ptr noundef %8) #11
  %10 = getelementptr inbounds nuw i8, ptr %6, i64 8
  store ptr %9, ptr %10, align 8
  tail call void @Abc_NtkCleanCopy(ptr noundef %0) #11
  %11 = tail call ptr @Abc_AigConst1(ptr noundef %6) #11
  %12 = tail call ptr @Abc_AigConst1(ptr noundef %0) #11
  %13 = getelementptr inbounds nuw i8, ptr %12, i64 64
  store ptr %11, ptr %13, align 8
  %14 = getelementptr i8, ptr %0, i64 64
  %.val3740 = load ptr, ptr %14, align 8
  %15 = getelementptr i8, ptr %.val3740, i64 4
  %.val37.val41 = load i32, ptr %15, align 4
  %16 = icmp sgt i32 %.val37.val41, 0
  br i1 %16, label %.lr.ph, label %.critedge

.lr.ph:                                           ; preds = %2, %.lr.ph
  %indvars.iv = phi i64 [ %indvars.iv.next, %.lr.ph ], [ 0, %2 ]
  %.val3743 = phi ptr [ %.val37, %.lr.ph ], [ %.val3740, %2 ]
  %17 = getelementptr i8, ptr %.val3743, i64 8
  %.val39.val = load ptr, ptr %17, align 8
  %18 = getelementptr inbounds nuw ptr, ptr %.val39.val, i64 %indvars.iv
  %19 = load ptr, ptr %18, align 8
  %.val = load ptr, ptr %19, align 8
  %20 = getelementptr i8, ptr %19, i64 32
  %.val34 = load ptr, ptr %20, align 8
  %21 = getelementptr i8, ptr %.val, i64 32
  %.val.val = load ptr, ptr %21, align 8
  %.val34.val = load i32, ptr %.val34, align 4
  %22 = getelementptr i8, ptr %.val.val, i64 8
  %.val.val.val = load ptr, ptr %22, align 8
  %23 = sext i32 %.val34.val to i64
  %24 = getelementptr inbounds ptr, ptr %.val.val.val, i64 %23
  %25 = load ptr, ptr %24, align 8
  %26 = tail call ptr @Abc_NtkTopmost_rec(ptr noundef %6, ptr noundef %25, i32 noundef %5)
  %27 = getelementptr i8, ptr %19, i64 20
  %.val35 = load i32, ptr %27, align 4
  %28 = lshr i32 %.val35, 10
  %29 = and i32 %28, 1
  %30 = ptrtoint ptr %26 to i64
  %31 = zext nneg i32 %29 to i64
  %32 = xor i64 %31, %30
  %33 = inttoptr i64 %32 to ptr
  %34 = tail call ptr @Abc_NtkCreateObj(ptr noundef %6, i32 noundef 3) #11
  %35 = getelementptr inbounds nuw i8, ptr %19, i64 64
  store ptr %34, ptr %35, align 8
  tail call void @Abc_ObjAddFanin(ptr noundef %34, ptr noundef %33) #11
  %indvars.iv.next = add nuw nsw i64 %indvars.iv, 1
  %.val37 = load ptr, ptr %14, align 8
  %36 = getelementptr i8, ptr %.val37, i64 4
  %.val37.val = load i32, ptr %36, align 4
  %37 = sext i32 %.val37.val to i64
  %38 = icmp slt i64 %indvars.iv.next, %37
  br i1 %38, label %.lr.ph, label %.critedge, !llvm.loop !18

.critedge:                                        ; preds = %.lr.ph, %2
  tail call void @Abc_NtkAddDummyPiNames(ptr noundef %6) #11
  %.val3644 = load ptr, ptr %14, align 8
  %39 = getelementptr i8, ptr %.val3644, i64 4
  %.val36.val45 = load i32, ptr %39, align 4
  %40 = icmp sgt i32 %.val36.val45, 0
  br i1 %40, label %.lr.ph48, label %.critedge2

.lr.ph48:                                         ; preds = %.critedge, %.lr.ph48
  %indvars.iv50 = phi i64 [ %indvars.iv.next51, %.lr.ph48 ], [ 0, %.critedge ]
  %.val3647 = phi ptr [ %.val36, %.lr.ph48 ], [ %.val3644, %.critedge ]
  %41 = getelementptr i8, ptr %.val3647, i64 8
  %.val38.val = load ptr, ptr %41, align 8
  %42 = getelementptr inbounds nuw ptr, ptr %.val38.val, i64 %indvars.iv50
  %43 = load ptr, ptr %42, align 8
  %44 = getelementptr inbounds nuw i8, ptr %43, i64 64
  %45 = load ptr, ptr %44, align 8
  %46 = tail call ptr @Abc_ObjName(ptr noundef %43) #11
  %47 = tail call ptr @Abc_ObjAssignName(ptr noundef %45, ptr noundef %46, ptr noundef null) #11
  %indvars.iv.next51 = add nuw nsw i64 %indvars.iv50, 1
  %.val36 = load ptr, ptr %14, align 8
  %48 = getelementptr i8, ptr %.val36, i64 4
  %.val36.val = load i32, ptr %48, align 4
  %49 = sext i32 %.val36.val to i64
  %50 = icmp slt i64 %indvars.iv.next51, %49
  br i1 %50, label %.lr.ph48, label %.critedge2, !llvm.loop !19

.critedge2:                                       ; preds = %.lr.ph48, %.critedge
  %51 = tail call i32 @Abc_NtkCheck(ptr noundef %6) #11
  %.not = icmp eq i32 %51, 0
  br i1 %.not, label %52, label %53

52:                                               ; preds = %.critedge2
  %puts = tail call i32 @puts(ptr nonnull dereferenceable(1) @str.11)
  tail call void @Abc_NtkDelete(ptr noundef %6) #11
  br label %53

53:                                               ; preds = %.critedge2, %52
  %.033 = phi ptr [ null, %52 ], [ %6, %.critedge2 ]
  ret ptr %.033
}